; Function Attrs: mustprogress uwtable
define internal void @"_ZNSt17_Function_handlerIFNSt7__cxx1112basic_stringIcSt11char_traitsIcESaIcEEEiEZN12_GLOBAL__N_133FromChars_DecimalFloatLimits_Test8TestBodyEvE3$_0E9_M_invokeERKSt9_Any_dataOi"(ptr dead_on_unwind noalias writable sret(%"class.std::__cxx11::basic_string") align 8 %0, ptr nonnull readnone align 8 captures(none) %1, ptr noundef nonnull readonly align 4 captures(none) dereferenceable(4) %2) #4 align 2 {
  %4 = alloca %"class.absl::AlphaNum", align 8
  %5 = alloca %"class.absl::AlphaNum", align 8
  %.val = load i32, ptr %2, align 4, !tbaa !120
  call void @llvm.lifetime.start.p0(i64 48, ptr nonnull %4) #23, !noalias !401
  store i64 4, ptr %4, align 8, !noalias !401
  %6 = getelementptr inbounds nuw i8, ptr %4, i64 8
  store ptr @.str.408, ptr %6, align 8, !noalias !401
  call void @llvm.lifetime.start.p0(i64 48, ptr nonnull %5) #23, !noalias !401
  %7 = getelementptr inbounds nuw i8, ptr %5, i64 16
  %8 = call noundef ptr @_ZN4absl16numbers_internal15FastIntToBufferEiPc(i32 noundef %.val, ptr noundef nonnull %7), !noalias !401
  %9 = ptrtoint ptr %8 to i64
  %10 = ptrtoint ptr %7 to i64
  %11 = sub i64 %9, %10
  store i64 %11, ptr %5, align 8, !tbaa !25, !noalias !401
  %12 = getelementptr inbounds nuw i8, ptr %5, i64 8
  store ptr %7, ptr %12, align 8, !tbaa !22, !noalias !401
  call void @_ZN4absl6StrCatB5cxx11ERKNS_8AlphaNumES2_(ptr dead_on_unwind writable sret(%"class.std::__cxx11::basic_string") align 8 %0, ptr noundef nonnull align 8 dereferenceable(48) %4, ptr noundef nonnull align 8 dereferenceable(48) %5)
  call void @llvm.lifetime.end.p0(i64 48, ptr nonnull %5) #23, !noalias !401
  call void @llvm.lifetime.end.p0(i64 48, ptr nonnull %4) #23, !noalias !401
  ret void
}